; Function Attrs: mustprogress uwtable
define void @_ZN5boost15program_options10validators22check_first_occurrenceERKNS_3anyE(ptr nocapture noundef nonnull readonly align 8 dereferenceable(8) %0) local_unnamed_addr #0 personality ptr @__gxx_personality_v0 {
  %2 = alloca %"class.boost::program_options::multiple_occurrences", align 8
  %3 = load ptr, ptr %0, align 8, !tbaa !43
  %.not.i = icmp eq ptr %3, null
  br i1 %.not.i, label %8, label %4

4:                                                ; preds = %1
  call void @llvm.lifetime.start.p0(i64 184, ptr nonnull %2) #28
  call void @_ZN5boost15program_options20multiple_occurrencesC2Ev(ptr noundef nonnull align 8 dereferenceable(184) %2)
  invoke void @_ZN5boost15throw_exceptionINS_15program_options20multiple_occurrencesEEEvRKT_(ptr noundef nonnull align 8 dereferenceable(184) %2) #30
          to label %5 unwind label %6

5:                                                ; preds = %4
  unreachable

6:                                                ; preds = %4
  %7 = landingpad { ptr, i32 }
          cleanup
  call void @_ZN5boost15program_options22error_with_option_nameD2Ev(ptr noundef nonnull align 8 dereferenceable(184) %2) #28
  call void @llvm.lifetime.end.p0(i64 184, ptr nonnull %2) #28
  resume { ptr, i32 } %7

8:                                                ; preds = %1
  ret void
}